ccollections
defaultdict
p0
(c__builtin__
float
p1
tp2
Rp3
(S'pot100'
p4
S'raise'
p5
tp6
F102.53106040929984
s(S'bigkahuna'
p7
S'fold'
p8
tp9
F0.0
s(S'odds7.0'
p10
g8
tp11
F0.0
s(S'odds6.0'
p12
g8
tp13
F0.0
s(S'odds4.0'
p14
g5
tp15
F-53.69084340988311
s(g7
S'call'
p16
tp17
F39.67009398794469
s(I3
g16
tp18
F-10.596252369539478
s(I1
g8
tp19
F0.0
s(S'odds9.0'
p20
g8
tp21
F0.0
s(S'odds8.0'
p22
g8
tp23
F0.0
s(I1
g5
tp24
F224.7048921071257
s(S'odds7.0'
p25
g16
tp26
F171.39440102669948
s(S'pot650'
p27
g5
tp28
F67.52686970026697
s(S'pot150'
p29
g16
tp30
F-73.74508208256897
s(S'odds8.0'
p31
g16
tp32
F580.010289681291
s(I3
g8
tp33
F0.0
s(g7
g5
tp34
F0.0
s(S'pot800'
p35
g8
tp36
F0.0
s(S'odds4.0'
p37
g8
tp38
F0.0
s(S'pot250'
p39
g8
tp40
F0.0
s(S'odds2.0'
p41
g5
tp42
F0.0
s(S'odds1.0'
p43
g8
tp44
F0.0
s(S'odds2.0'
p45
g8
tp46
F0.0
s(S'instantwin'
p47
g16
tp48
F615.8620358394415
s(S'odds3.0'
p49
g5
tp50
F-107.73274747050964
s(I2
g16
tp51
F103.2045761312796
s(S'pot350'
p52
g16
tp53
F131.72870407044132
s(I0
g8
tp54
F0.0
s(g4
g16
tp55
F-74.00111208241177
s(I0
g5
tp56
F160.45590230349646
s(S'odds6.0'
p57
g16
tp58
F61.9157443590636
s(Ng16
tp59
F763.7360725281881
s(g52
g8
tp60
F0.0
s(I3
g5
tp61
F0.0
s(g39
g5
tp62
F98.89458675652114
s(S'odds5.0'
p63
g8
tp64
F0.0
s(g29
g5
tp65
F26.945959178320646
s(Ng5
tp66
F704.3096404971479
s(S'odds5.0'
p67
g5
tp68
F17.524437342729524
s(g27
g16
tp69
F251.13310599075544
s(S'pot500'
p70
g8
tp71
F0.0
s(S'odds6.0'
p72
g5
tp73
F223.73422398531542
s(S'odds9.0'
p74
g5
tp75
F0.0
s(S'odds8.0'
p76
g5
tp77
F314.4070273831565
s(g70
g5
tp78
F264.4091226443319
s(g27
g8
tp79
F0.0
s(Ng8
tp80
F0.0
s(S'odds4.0'
p81
g16
tp82
F-219.53191296788808
s(S'odds9.0'
p83
S'call'
p84
tp85
F-1.506997553757671
s(I2
g8
tp86
F0.0
s(S'odds3.0'
p87
g16
tp88
F-214.32215183838298
s(S'odds7.0'
p89
g5
tp90
F310.06754266633897
s(g52
g5
tp91
F144.00204180840743
s(S'odds1.0'
p92
g5
tp93
F0.0
s(g4
g8
tp94
F0.0
s(g29
g8
tp95
F0.0
s(S'odds3.0'
p96
g8
tp97
F0.0
s(g35
g16
tp98
F200.47088502618644
s(g47
g8
tp99
F0.0
s(I0
g16
tp100
F351.67895968301906
s(g47
g5
tp101
F0.0
s(S'odds2.0'
p102
g16
tp103
F-68.43967362152407
s(g39
g16
tp104
F-19.58397284934656
s(S'odds1.0'
p105
g16
tp106
F0.0
s(S'odds5.0'
p107
g16
tp108
F-161.64566239675412
s(I2
g5
tp109
F319.1488460865256
s(g35
g5
tp110
F0.0
s(I1
g16
tp111
F319.4487890834301
s(g70
g16
tp112
F308.0634504671883
s.