ccollections
defaultdict
p0
(c__builtin__
float
p1
tp2
Rp3
(S'pot100'
p4
S'raise'
p5
tp6
F91.86343552554256
s(S'odds7.0'
p7
S'fold'
p8
tp9
F0.0
s(S'odds6.0'
p10
g8
tp11
F0.0
s(S'odds4.0'
p12
g5
tp13
F-10.235885742821825
s(I3
S'call'
p14
tp15
F0.0
s(I1
g8
tp16
F0.0
s(S'odds9.0'
p17
g8
tp18
F0.0
s(S'odds8.0'
p19
g8
tp20
F0.0
s(I1
g5
tp21
F93.56103577514426
s(S'odds7.0'
p22
g14
tp23
F60.81572442174098
s(S'pot650'
p24
g5
tp25
F0.0
s(S'odds8.0'
p26
g14
tp27
F139.20110346314374
s(I3
g8
tp28
F0.0
s(I0
g8
tp29
F0.0
s(S'odds4.0'
p30
g8
tp31
F0.0
s(S'pot250'
p32
g8
tp33
F0.0
s(S'odds2.0'
p34
g5
tp35
F0.0
s(S'odds1.0'
p36
g8
tp37
F0.0
s(S'odds2.0'
p38
g8
tp39
F0.0
s(S'instantwin'
p40
g14
tp41
F140.093536680667
s(g24
g14
tp42
F22.864562220577405
s(S'odds3.0'
p43
g5
tp44
F-2.12445869280225
s(I2
g14
tp45
F59.405878258589695
s(S'pot350'
p46
g14
tp47
F8.837367782227913
s(S'pot150'
p48
g14
tp49
F30.511790519364688
s(g4
g14
tp50
F61.29777969485933
s(I0
g5
tp51
F71.02413814213573
s(Ng5
tp52
F168.59293589533104
s(S'odds6.0'
p53
g5
tp54
F109.1844680729783
s(g46
g8
tp55
F0.0
s(I3
g5
tp56
F0.0
s(g32
g5
tp57
F78.85395906259087
s(S'odds5.0'
p58
g8
tp59
F0.0
s(g48
g5
tp60
F-2.12445869280225
s(S'odds6.0'
p61
g14
tp62
F63.250919465871995
s(S'odds5.0'
p63
g5
tp64
F-6.860302546139353
s(g40
g8
tp65
F0.0
s(S'pot500'
p66
g8
tp67
F0.0
s(Ng14
tp68
F235.4729853512278
s(S'odds8.0'
p69
g5
tp70
F62.07206171303923
s(g66
g5
tp71
F0.0
s(g24
g8
tp72
F0.0
s(Ng8
tp73
F0.0
s(S'odds4.0'
p74
g14
tp75
F-56.603792461085284
s(I2
g8
tp76
F0.0
s(S'odds3.0'
p77
g14
tp78
F-70.45651395508594
s(S'odds7.0'
p79
g5
tp80
F16.55705309107699
s(g46
g5
tp81
F0.0
s(S'odds1.0'
p82
g5
tp83
F0.0
s(g4
g8
tp84
F0.0
s(I0
g14
tp85
F76.43800974306998
s(S'odds3.0'
p86
g8
tp87
F0.0
s(g48
g8
tp88
F0.0
s(g40
g5
tp89
F0.0
s(S'odds2.0'
p90
g14
tp91
F-15.643185164727434
s(g32
g14
tp92
F50.02641518857048
s(S'odds1.0'
p93
g14
tp94
F0.0
s(S'odds5.0'
p95
g14
tp96
F-25.18480709929702
s(I2
g5
tp97
F4.007761978051224
s(I1
g14
tp98
F99.62909734956834
s(g66
g14
tp99
F61.93506994562824
s.